target datalayout = "e-m:e-p270:32:32-p271:32:32-p272:64:64-i64:64-i128:128-f80:128-n8:16:32:64-S128"
target triple = "x86_64-pc-linux-gnu"

%struct.Vec_Int_t_ = type { i32, i32, ptr }
%struct.Aig_Man_t_ = type { ptr, ptr, ptr, ptr, ptr, ptr, ptr, %struct.Aig_Obj_t_, i32, i32, i32, i32, i32, i32, [7 x i32], i32, ptr, i32, ptr, i32, ptr, i32, i32, i32, ptr, i32, i32, i32, i32, i32, ptr, ptr, i32, ptr, ptr, i32, ptr, ptr, i32, i32, i32, ptr, ptr, ptr, ptr, ptr, ptr, ptr, ptr, ptr, ptr, ptr, ptr, ptr, ptr, i32, ptr, ptr, ptr, ptr, i32, i64, i64, i64, ptr, ptr }
%struct.Aig_Obj_t_ = type { %union.anon, ptr, ptr, i64, i32, i32, %union.anon.0 }
%union.anon = type { ptr }
%union.anon.0 = type { ptr }

; Function Attrs: nounwind uwtable
define internal void @Vec_IntFree(ptr noundef %0) #0 {
  %2 = alloca ptr, align 8
  store ptr %0, ptr %2, align 8
  %3 = load ptr, ptr %2, align 8
  %4 = getelementptr inbounds %struct.Vec_Int_t_, ptr %3, i32 0, i32 2
  %5 = load ptr, ptr %4, align 8
  %6 = icmp ne ptr %5, null
  br i1 %6, label %7, label %13

7:                                                ; preds = %1
  %8 = load ptr, ptr %2, align 8
  %9 = getelementptr inbounds %struct.Vec_Int_t_, ptr %8, i32 0, i32 2
  %10 = load ptr, ptr %9, align 8
  call void @free(ptr noundef %10) #10
  %11 = load ptr, ptr %2, align 8
  %12 = getelementptr inbounds %struct.Vec_Int_t_, ptr %11, i32 0, i32 2
  store ptr null, ptr %12, align 8
  br label %14

13:                                               ; preds = %1
  br label %14

14:                                               ; preds = %13, %7
  %15 = load ptr, ptr %2, align 8
  %16 = icmp ne ptr %15, null
  br i1 %16, label %17, label %19

17:                                               ; preds = %14
  %18 = load ptr, ptr %2, align 8
  call void @free(ptr noundef %18) #10
  store ptr null, ptr %2, align 8
  br label %20

19:                                               ; preds = %14
  br label %20

20:                                               ; preds = %19, %17
  ret void
}

; Function Attrs: nounwind uwtable
define ptr @Abc_NtkDarRetimeStep(ptr noundef %0, i32 noundef %1) #0 {
  %3 = alloca ptr, align 8
  %4 = alloca ptr, align 8
  %5 = alloca i32, align 4
  %6 = alloca ptr, align 8
  %7 = alloca ptr, align 8
  store ptr %0, ptr %4, align 8
  store i32 %1, ptr %5, align 4
  %8 = load ptr, ptr %4, align 8
  %9 = call ptr @Abc_NtkToDar(ptr noundef %8, i32 noundef 0, i32 noundef 1)
  store ptr %9, ptr %7, align 8
  %10 = load ptr, ptr %7, align 8
  %11 = icmp eq ptr %10, null
  br i1 %11, label %12, label %13

12:                                               ; preds = %2
  store ptr null, ptr %3, align 8
  br label %34

13:                                               ; preds = %2
  %14 = load ptr, ptr %7, align 8
  %15 = getelementptr inbounds %struct.Aig_Man_t_, ptr %14, i32 0, i32 49
  %16 = load ptr, ptr %15, align 8
  %17 = icmp ne ptr %16, null
  br i1 %17, label %18, label %22

18:                                               ; preds = %13
  %19 = load ptr, ptr %7, align 8
  %20 = getelementptr inbounds %struct.Aig_Man_t_, ptr %19, i32 0, i32 49
  %21 = load ptr, ptr %20, align 8
  call void @Vec_IntFree(ptr noundef %21)
  br label %22

22:                                               ; preds = %18, %13
  %23 = load ptr, ptr %7, align 8
  %24 = getelementptr inbounds %struct.Aig_Man_t_, ptr %23, i32 0, i32 49
  store ptr null, ptr %24, align 8
  %25 = load ptr, ptr %7, align 8
  call void @Aig_ManPrintStats(ptr noundef %25)
  %26 = load ptr, ptr %7, align 8
  %27 = call i32 @Saig_ManRetimeSteps(ptr noundef %26, i32 noundef 1000, i32 noundef 1, i32 noundef 0)
  %28 = load ptr, ptr %7, align 8
  call void @Aig_ManPrintStats(ptr noundef %28)
  %29 = load ptr, ptr %4, align 8
  %30 = load ptr, ptr %7, align 8
  %31 = call ptr @Abc_NtkFromDarSeqSweep(ptr noundef %29, ptr noundef %30)
  store ptr %31, ptr %6, align 8
  %32 = load ptr, ptr %7, align 8
  call void @Aig_ManStop(ptr noundef %32)
  %33 = load ptr, ptr %6, align 8
  store ptr %33, ptr %3, align 8
  br label %34

34:                                               ; preds = %22, %12
  %35 = load ptr, ptr %3, align 8
  ret ptr %35
}