; Function Attrs: nounwind uwtable
define ptr @Abc_NtkDarRetimeStep(ptr noundef %0, i32 noundef %1) local_unnamed_addr #1 {
  %3 = tail call ptr @Abc_NtkToDar(ptr noundef %0, i32 noundef 0, i32 noundef 1)
  %4 = icmp eq ptr %3, null
  br i1 %4, label %15, label %5

5:                                                ; preds = %2
  %6 = getelementptr inbounds nuw i8, ptr %3, i64 392
  %7 = load ptr, ptr %6, align 8
  %.not = icmp eq ptr %7, null
  br i1 %.not, label %12, label %8

8:                                                ; preds = %5
  %9 = getelementptr inbounds nuw i8, ptr %7, i64 8
  %10 = load ptr, ptr %9, align 8
  %.not.i = icmp eq ptr %10, null
  br i1 %.not.i, label %Vec_IntFree.exit, label %11

11:                                               ; preds = %8
  tail call void @free(ptr noundef nonnull %10) #19
  br label %Vec_IntFree.exit

Vec_IntFree.exit:                                 ; preds = %8, %11
  tail call void @free(ptr noundef nonnull %7) #19
  br label %12

12:                                               ; preds = %Vec_IntFree.exit, %5
  store ptr null, ptr %6, align 8
  tail call void @Aig_ManPrintStats(ptr noundef nonnull %3) #19
  %13 = tail call i32 @Saig_ManRetimeSteps(ptr noundef nonnull %3, i32 noundef 1000, i32 noundef 1, i32 noundef 0) #19
  tail call void @Aig_ManPrintStats(ptr noundef nonnull %3) #19
  %14 = tail call ptr @Abc_NtkFromDarSeqSweep(ptr noundef %0, ptr noundef nonnull %3)
  tail call void @Aig_ManStop(ptr noundef nonnull %3) #19
  br label %15

15:                                               ; preds = %2, %12
  %.0 = phi ptr [ %14, %12 ], [ null, %2 ]
  ret ptr %.0
}